Certificate:
    Data:
        Version: 3 (0x2)
        Serial Number:
            30:b9:2d:17:2c:53:1d:28:14:54:1c:8b:e8:1a:9a:f2:11:57:d7:9f
        Signature Algorithm: sha256WithRSAEncryption
        Issuer: CN = localhost
        Validity
            Not Before: Dec  8 17:00:04 2023 GMT
            Not After : Jan  7 17:00:04 2024 GMT
        Subject: CN = localhost
        Subject Public Key Info:
            Public Key Algorithm: rsaEncryption
                Public-Key: (2048 bit)
                Modulus:
                    00:c6:11:b2:5a:a8:67:38:71:78:0c:4b:31:0e:5f:
                    34:79:ad:6b:ba:18:fb:a0:75:09:b5:d9:a4:79:6a:
                    40:c0:8e:a8:7a:3d:6c:9d:d2:f3:dd:04:a3:f3:a9:
                    fe:b8:7d:a7:e5:2b:17:3f:3c:6a:aa:97:2a:7d:7a:
                    f7:b1:9b:0d:72:60:22:b7:25:43:cc:56:bb:63:c5:
                    8f:60:2e:ab:37:69:4d:76:56:5e:8b:5f:8c:74:67:
                    8e:b6:eb:35:13:6f:d2:8c:4c:31:c6:69:2a:db:10:
                    4d:a1:0d:ed:c0:06:5d:e3:71:7b:70:84:ba:dc:ce:
                    4e:02:81:59:ab:8f:11:48:84:2c:9d:08:b9:91:32:
                    2e:56:58:4f:06:95:71:ac:97:f0:1a:a7:13:58:30:
                    c1:6e:13:9e:9e:02:9e:cf:30:cb:85:ba:31:fd:93:
                    c8:75:4d:28:12:ea:c2:78:3f:6c:74:83:8d:3a:9c:
                    fb:e4:6c:f9:4e:96:70:1c:21:7d:d6:b5:44:8f:74:
                    30:66:be:70:3d:72:66:cf:d0:d4:ea:0f:94:d9:07:
                    9f:d5:ed:b6:c4:a7:43:10:01:1c:88:bf:9e:4b:b5:
                    7c:98:2f:c0:43:2d:53:fc:02:77:d5:77:2d:3d:23:
                    a1:29:ed:68:c9:6e:62:78:93:05:31:a1:2d:b7:2a:
                    17:d9
                Exponent: 65537 (0x10001)
        X509v3 extensions:
            X509v3 Subject Key Identifier: 
                FF:7D:F1:C7:0F:E0:88:F0:BB:5F:57:44:5B:62:1D:8B:2E:D2:97:91
            X509v3 Authority Key Identifier: 
                FF:7D:F1:C7:0F:E0:88:F0:BB:5F:57:44:5B:62:1D:8B:2E:D2:97:91
            X509v3 Basic Constraints: critical
                CA:TRUE
    Signature Algorithm: sha256WithRSAEncryption
    Signature Value:
        19:6b:a5:68:57:b3:03:82:bf:9d:d9:14:f9:f5:3c:31:dd:94:
        62:1f:8c:5c:71:04:02:f7:69:2e:29:2f:38:96:f2:d7:55:ea:
        9f:b0:2a:cd:c4:d3:b1:9a:83:01:f2:2b:25:74:cf:d1:2a:4f:
        85:e5:82:92:59:12:d7:e6:64:5b:f8:12:e0:e5:45:00:da:85:
        b2:36:fb:ad:e8:ce:0e:07:6c:2d:73:33:01:cd:c5:4a:9a:8b:
        79:a6:33:25:d4:8b:16:ae:43:bd:42:05:e8:52:7b:1b:6f:a0:
        73:26:10:50:a8:5c:c2:3d:5f:53:9c:4d:75:8e:33:3a:04:3d:
        cb:93:42:39:0f:91:c7:5c:27:22:bb:01:05:f5:a6:0a:e5:48:
        ee:6b:43:d8:16:c8:db:77:81:b9:6c:48:bb:84:3f:b1:79:cc:
        b8:fe:96:2c:44:5a:8a:9a:a4:ee:ad:87:9f:5c:ae:62:f8:49:
        b8:5e:22:0f:2c:f7:bb:89:2b:b0:86:4e:e2:09:ff:ec:09:bd:
        09:8a:9c:4c:0c:a2:14:92:34:30:b1:5d:40:f8:5e:2f:02:cf:
        15:a2:2c:17:d5:34:24:47:11:60:60:d5:65:ea:83:c8:a1:9f:
        00:17:71:01:a9:06:24:13:43:e6:3a:7a:e4:cd:9b:eb:9a:96:
        df:fc:df:03
-----BEGIN CERTIFICATE-----
MIIDCTCCAfGgAwIBAgIUMLktFyxTHSgUVByL6Bqa8hFX158wDQYJKoZIhvcNAQEL
BQAwFDESMBAGA1UEAwwJbG9jYWxob3N0MB4XDTIzMTIwODE3MDAwNFoXDTI0MDEw
NzE3MDAwNFowFDESMBAGA1UEAwwJbG9jYWxob3N0MIIBIjANBgkqhkiG9w0BAQEF
AAOCAQ8AMIIBCgKCAQEAxhGyWqhnOHF4DEsxDl80ea1ruhj7oHUJtdmkeWpAwI6o
ej1sndLz3QSj86n+uH2n5SsXPzxqqpcqfXr3sZsNcmAityVDzFa7Y8WPYC6rN2lN
dlZei1+MdGeOtus1E2/SjEwxxmkq2xBNoQ3twAZd43F7cIS63M5OAoFZq48RSIQs
nQi5kTIuVlhPBpVxrJfwGqcTWDDBbhOengKezzDLhbox/ZPIdU0oEurCeD9sdION
Opz75Gz5TpZwHCF91rVEj3QwZr5wPXJmz9DU6g+U2Qef1e22xKdDEAEciL+eS7V8
mC/AQy1T/AJ31XctPSOhKe1oyW5ieJMFMaEttyoX2QIDAQABo1MwUTAdBgNVHQ4E
FgQU/33xxw/giPC7X1dEW2Idiy7Sl5EwHwYDVR0jBBgwFoAU/33xxw/giPC7X1dE
W2Idiy7Sl5EwDwYDVR0TAQH/BAUwAwEB/zANBgkqhkiG9w0BAQsFAAOCAQEAGWul
aFezA4K/ndkU+fU8Md2UYh+MXHEEAvdpLikvOJby11Xqn7AqzcTTsZqDAfIrJXTP
0SpPheWCklkS1+ZkW/gS4OVFANqFsjb7rejODgdsLXMzAc3FSpqLeaYzJdSLFq5D
vUIF6FJ7G2+gcyYQUKhcwj1fU5xNdY4zOgQ9y5NCOQ+Rx1wnIrsBBfWmCuVI7mtD
2BbI23eBuWxIu4Q/sXnMuP6WLERaipqk7q2Hn1yuYvhJuF4iDyz3u4krsIZO4gn/
7Am9CYqcTAyiFJI0MLFdQPheLwLPFaIsF9U0JEcRYGDVZeqDyKGfABdxAakGJBND
5jp65M2b65qW3/zfAw==
-----END CERTIFICATE-----
